MPASM 5.75                          MAIN.ASM   11-23-2017  10:26:13         PAGE  1


LOC  OBJECT CODE     LINE SOURCE TEXT
  VALUE

                      00001 ;---------------------ENCABEZADO----------------------------------
Warning[205]: Found directive in column 1. (list)
                      00002 list p=16f887
                      00003 #include "p16f887.inc"
                      00001         LIST
                      00002 
                      00003 ;==========================================================================
                      00004 ; Build date : Jul 02 2017
                      00005 ;  MPASM PIC16F887 processor include
                      00006 ; 
                      00007 ;  (c) Copyright 1999-2017 Microchip Technology, All rights reserved
                      00008 ;==========================================================================
                      00009 
                      00810         LIST
                      00004 ; CONFIG1
                      00005 ; __config 0xE0FD
2007   20FD           00006  __CONFIG _CONFIG1, _FOSC_INTRC_CLKOUT & _WDTE_ON & _PWRTE_OFF & _MCLRE_ON & _CP_OFF & _CPD_OFF & _BOREN
                            _OFF & _IESO_OFF & _FCMEN_OFF & _LVP_OFF
                      00007 ; CONFIG2
                      00008 ; __config 0xFFFF
2008   3FFF           00009  __CONFIG _CONFIG2, _BOR4V_BOR40V & _WRT_OFF
                      00010 
                      00011 ;------------------MEMORIA DE PROGRAMA-----------------------------
  00000098            00012 conf_int equ b'10011000'
  000000C7            00013 conf_timer equ b'11000111'
  00000020            00014 pisoactual equ 0x20
  00000021            00015 proximopiso equ 0x21
  00000022            00016 controlpiso equ 0x22
  00000022            00017 controlasen equ 0x22
  00000023            00018 CONTA_3 equ 0x23
  00000024            00019 CONTA_2 equ 0x24 
  00000025            00020 CONTA_1 equ 0x25 
                      00021 ;------------------PROGRAMA PRINCIPAL------------------------------ 
Warning[205]: Found directive in column 1. (org)
                      00022 org 0x00
0000   2???           00023     goto inicio
                      00024 
Warning[205]: Found directive in column 1. (org)
                      00025 org 0x04
0004   2???           00026     call rsi
0005   00A2           00027     movwf controlpiso
0006   108B           00028     bcf INTCON,INTF
0007   100B           00029     bcf INTCON,RBIF
0008   0009           00030     retfie    
                      00031  
0009                  00032 inicio
0009   0000           00033     nop
000A   0000           00034     nop
                      00035     
000B   1683           00036     bsf STATUS,RP0  ;ingresamos al banco 1
000C   1303           00037     bcf STATUS,RP1
                      00038     
                      00039     ;------ENTRADAS-----------------
MPASM 5.75                          MAIN.ASM   11-23-2017  10:26:13         PAGE  2


LOC  OBJECT CODE     LINE SOURCE TEXT
  VALUE

000D   30E0           00040     movlw b'11100000'
Message[302]: Register in operand not in bank 0.  Ensure that bank bits are correct.
000E   0086           00041     movwf TRISB     ;declaramos el puerto B como etrada, especificamente, los 2 bits mas significativos
                      00042     ;------SALIDAS------------------
Message[302]: Register in operand not in bank 0.  Ensure that bank bits are correct.
000F   0185           00043     clrf TRISA
Message[302]: Register in operand not in bank 0.  Ensure that bank bits are correct.
0010   0187           00044     clrf TRISC
Message[302]: Register in operand not in bank 0.  Ensure that bank bits are correct.
0011   0188           00045     clrf TRISD      ;declaramos los puertos A, C y D como salidas
                      00046     ;------INTERRUPCIONES-----------
0012   3098           00047     movlw conf_int
0013   008B           00048     movwf INTCON    ;cargamos intcon con 10011000
0014   30C7           00049     movlw conf_timer    
Message[302]: Register in operand not in bank 0.  Ensure that bank bits are correct.
0015   0081           00050     movwf OPTION_REG    ;cargamos el option_reg con 11000111
0016   30FF           00051     movlw 0xFF
Message[302]: Register in operand not in bank 0.  Ensure that bank bits are correct.
0017   0096           00052     movwf IOCB      ;ponemos IOCB como entrada
                      00053     
0018   1283           00054     bcf STATUS,RP0
0019   1303           00055     bcf STATUS,RP1  ;regresamos al banco 0
                      00056     
                      00057     ;------LIMPIAR PUERTOS-----------
001A   0185           00058     clrf PORTA  
001B   0186           00059     clrf PORTB
001C   0187           00060     clrf PORTC
001D   0188           00061     clrf PORTD
                      00062     
                      00063     ;------INICIALIZAR VALORES-------
001E   3001           00064     movlw b'00000001'
001F   00A0           00065     movwf pisoactual    ;ponemos por defecto el piso 1
0020   30CF           00066     movlw b'11001111'   ;pone el numero 1 en el displya
0021   0088           00067     movwf PORTD         ;ubicado en el puerto D
0022   3000           00068     movlw 0x00      
0023   00A2           00069     movwf controlpiso   
                      00070     
                      00071 ;-----------------------------BUCLE------------------------------
0024                  00072 bucle
0024   1787           00073     bsf PORTC,7         ;enciende un led, en señal de que se espera recibir una orden 
0025                  00074 _bucle    
0025   1822           00075     btfsc controlpiso,0     ;verifica si se presiono el pulsador que va al piso 1
0026   2???           00076     goto PISO1              ;de ser asi va a la subrrutina PISO1
0027   18A2           00077     btfsc controlpiso,1     ;verifica si se presiono el pulsador que va al piso 2
0028   2???           00078     goto PISO2              ;de ser asi va a la subrrutina PISO2
0029   1922           00079     btfsc controlpiso,2     ;verifica si se presiono el pulsador que va al piso 1
002A   2???           00080     goto PISO3              ;de ser asi va a la subrrutina PISO3
002B   2???           00081     goto _bucle             ;regresa al bucle 
                      00082     
                      00083 ;-------------------------RUTINA DE INTERRUPCION------------------    
002C                  00084 rsi
002C   1B86           00085     btfsc PORTB,7   
002D   3401           00086     retlw b'00000001'   ;asigna el bit 1 al numero 1
MPASM 5.75                          MAIN.ASM   11-23-2017  10:26:13         PAGE  3


LOC  OBJECT CODE     LINE SOURCE TEXT
  VALUE

002E   1B06           00087     btfsc PORTB,6       
002F   3402           00088     retlw b'00000010'   ;asigna el bit 2 al numero 2
0030   1A86           00089     btfsc PORTB,5
0031   3404           00090     retlw b'00000100'   ;asigna el bit 4 al numero 3
0032   0008           00091     return              ;regresa donde los llamaron 
                      00092 
                      00093 ;-------------------RUTINA DE PISO 1-------------------------------
0033                  00094 PISO1
0033   1820           00095     btfsc pisoactual,0;pisoactual es igual a 1
0034   2???           00096     goto mismopiso  ;de presionarse el mismo boton del piso 1, va la subrrutina mismopiso
0035   18A0           00097     btfsc pisoactual,1;pisoactual es igual a 2, se ser asi...
0036   2???           00098     goto _pp1       ;... va a la subrrutina _pp1
0037   1920           00099     btfsc pisoactual,2;pisoactual es igual a 4, de ser asi...
0038   2???           00100     goto _pp1       ; ...de ser asi va a la subrruitina _pp1
0039   2???           00101     goto _bucle    ; regresa al bucle 
003A                  00102 _pp1
003A   3001           00103     movlw b'00000001'   ;mueve el valor de "1"
003B   00A1           00104     movwf proximopiso    ;a la variable proximopiso
003C   1920           00105     btfsc pisoactual,2  ;
003D   03A0           00106     decf pisoactual,f    ;decrementa pisoactual    
003E   0820           00107     movfw pisoactual    ;
003F   0221           00108     subwf proximopiso,W ;hace la reta proximopiso - pisoactual 
0040   1C03           00109     btfss STATUS,C  ;hace la bifuracion
0041   2???           00110     goto _menor     ;si la bifuracion da 0, va a la subrrutina _menor
0042   2???           00111     goto _mayor     ;si la bifuracion da 1, va a la subrrutina _mayor 
                      00112     
0043                  00113 _mayor          ;subrrutina mayor 
0043   00A2           00114     movwf controlasen   ;mueve el valor de controlasen a f
0044   2???           00115     goto mover          ; va a la subrrutina mover
0045                  00116 _menor                  ;subrrutina menor
0045   0821           00117     movfw proximopiso    ;mueve el valor de f a proximopiso
0046   0220           00118     subwf pisoactual,W  ;hace la resta entre entre proximopiso - piso actual 
0047   00A2           00119     movwf controlasen   ;mueve el resultado a controlasen
0048   17A2           00120     bsf controlasen,7   
0049   2???           00121     goto mover          ;va a la subrrutina mover
                      00122 ;-------------------RUTINA DE PISO 2-------------------------------
004A                  00123 PISO2
004A   1820           00124     btfsc pisoactual,0;pisoactual es igual a 1
004B   2???           00125     goto _pp2       ;si la bifuracion es 1 va a _pp2
004C   18A0           00126     btfsc pisoactual,1;pisoactual es igual a 2
004D   2???           00127     goto mismopiso  ;si la bifuracion es 1 va a mismopiso
004E   1920           00128     btfsc pisoactual,2;pisoactual es igual a 4
004F   2???           00129     goto _pp2       ;si la bifuracion es 1 va a _pp2    
0050   2???           00130     goto _bucle     ;regresa al bucle
0051                  00131 _pp2            ;subrrutina _pp2
0051   3002           00132     movlw b'00000010'   ;mueve el valor de "2"
0052   00A1           00133     movwf proximopiso    ;... a proximopiso
0053   1920           00134     btfsc pisoactual,2  
0054   03A0           00135     decf pisoactual,f    ;decrementa piso actual con el valor de f 
0055   0820           00136     movfw pisoactual        ;mueve el resultado a pisoactual
0056   0221           00137     subwf proximopiso,W     ;hace la reta entre proximopiso - pisoactual
0057   1C03           00138     btfss STATUS,C          ;hace la bifuracion
0058   2???           00139     goto _menor     ;...    si la bifuracion es 0, va a _menor  
MPASM 5.75                          MAIN.ASM   11-23-2017  10:26:13         PAGE  4


LOC  OBJECT CODE     LINE SOURCE TEXT
  VALUE

0059   2???           00140     goto _mayor     ;...    si al bifuracion es 1 va a _mayor
                      00141 ;-------------------RUTINA DE PISO 3-------------------------------    
005A                  00142 PISO3
005A   1820           00143     btfsc pisoactual,0;pisoactual es igual a 1
005B   2???           00144     goto _pp3       ;va a la subrrutina _pp3
005C   18A0           00145     btfsc pisoactual,1;pisoactual es igual a 2
005D   2???           00146     goto _pp3       ;;va a la subrrutina _pp3
005E   1920           00147     btfsc pisoactual,2;pisoactual es igual a 4
005F   2???           00148     goto mismopiso  ;va a la subrrutina mismopiso
0060   2???           00149     goto _bucle     ;va a la subrrutina _bucle 
0061                  00150 _pp3                ;subrrutina _pp3
0061   3003           00151     movlw b'00000011'   ;mueve el valor de 3...
0062   00A1           00152     movwf proximopiso   ;a proximopiso  
0063   1920           00153     btfsc pisoactual,2      
0064   03A0           00154     decf pisoactual,f    ;decrementa pisoactual 
0065   0820           00155     movfw pisoactual    ;mueve el valor de pisoactual a w
0066   0221           00156     subwf proximopiso,W ;hace la resta entre proximopiso - pisoactual
0067   1C03           00157     btfss STATUS,C  ;hace la bifuracacion
0068   2???           00158     goto _menor     ;...    si la bifuracion es 0, va a _menor  
0069   2???           00159     goto _mayor     ;...    si al bifuracion es 1 va a _mayor
                      00160     
                      00161 ;-------------------ABRIR PUERTA DE ASCENSOR-----------------------
006A                  00162 mismopiso
006A   1487           00163     bsf PORTC,1 ;enciende el led ubicado en el pin 1 del puerto C
006B   0186           00164     clrf PORTB  ;se limpia el Puerto B
006C   2???           00165     call retardo ; se llama al retardo
006D   2???           00166     goto bucle  ;va a bucle
                      00167 ;-------------------RUTINA DE MOVER-----------------------    
006E                  00168 mover       
006E   1BA2           00169     btfsc controlasen, 7; hace la bifuracion...
006F   2???           00170     goto bajar          ;... si es 1 va a la subrrutina bajar
0070   2???           00171     goto subir          ;...si es 1 va al subrutina subir
                      00172     ;---------------MOVER SUBRUTINAS---------------------
0071                  00173 bajar   
0071   18A2           00174     btfsc controlasen, 1 
0072   2???           00175     goto _bajar2    
0073   2???           00176     goto _bajar1    
0074                  00177 subir
0074   18A2           00178     btfsc controlasen, 1
0075   2???           00179     goto _subir2    
0076   2???           00180     goto _subir1
                      00181     
0077                  00182 _bajar1         ;subrrutina _bajar1
0077   1D20           00183     btfss pisoactual, 2 ; el piso actual es 3?
0078   2???           00184     goto _bajar12       ;si no es 3 vaya a _vajar12
0079   3002           00185     movlw b'00000010'   ;mueve el valor de 2...
007A   0085           00186     movwf PORTA         ;... al puerto A
007B   1507           00187     bsf PORTC, 2        ;enciende el led ubicado en el pin 2 del puerto C
007C   30B0           00188     movlw b'10110000'   ;pone el numero 3...
007D   0088           00189     movwf PORTD         ;en el puerto D
007E   3003           00190     movlw b'00000011'   ;mueve el valor de 3 ...
007F   00A0           00191     movwf pisoactual    ;a piso actual 
0080   2???           00192     call retardo        ;llama la retardo
MPASM 5.75                          MAIN.ASM   11-23-2017  10:26:13         PAGE  5


LOC  OBJECT CODE     LINE SOURCE TEXT
  VALUE

0081   30A4           00193     movlw b'10100100'   ;pone el numero 2...
0082   0088           00194     movwf PORTD         ;... en el puerto D
0083   3002           00195     movlw b'00000010'   ;mueve el valor de 2...
0084   00A0           00196     movwf pisoactual    ;... a pisoactual
0085   1107           00197     bcf PORTC, 2        ;apaga el led ubicado en el pin 2 del puerto C
0086   0185           00198     clrf PORTA          ;para el servo
0087   2???           00199     goto mismopiso      ;va a la subrrutina mismopiso
                      00200     
0088                  00201 _bajar12                ;subrrutina _bajar12
0088   3002           00202     movlw b'00000010'   ;mueve el el valor de 2...
0089   0085           00203     movwf PORTA         ;al puerto A
008A   1507           00204     bsf PORTC, 2        ;enciende el led ubicado en el pin 2 del puerto C
008B   30A4           00205     movlw b'10100100'   ;pone el numero 2...
008C   0088           00206     movwf PORTD         ;...en el display ubicado en el puerto D
008D   3002           00207     movlw b'00000010'   ;mueve el valor de 2 
008E   00A0           00208     movwf pisoactual    ;a pisoactual
008F   2???           00209     call retardo        ;llama al retardo
0090   30F9           00210     movlw b'11111001'   ;pone el numero 1...
0091   0088           00211     movwf PORTD         ;...en el display ubicado en el puerto D
0092   3001           00212     movlw b'00000001'   ;mueve el valor de 1...
0093   00A0           00213     movwf pisoactual    ;... a pisoactual 
0094   1107           00214     bcf PORTC, 2        ; apaga el led ubicado en el pin 2 del puerto C
0095   0185           00215     clrf PORTA          ;para el servo
0096   2???           00216     goto mismopiso      ;va la subrrutina mismopiso
                      00217     
0097                  00218 _bajar2    ;subrrutina bajar 2
0097   3002           00219     movlw b'00000010'   ;mueve el valor de 2...
0098   0085           00220     movwf PORTA         ;...al puerto A
0099   1507           00221     bsf PORTC, 2        ;enciende el led ubicado en el pin 2 del puerto C
009A   30B0           00222     movlw b'10110000'   ;pone el numero 3...
009B   0088           00223     movwf PORTD         ;en el display ubicado en el puerto D
009C   3003           00224     movlw b'00000011'   ;mueve el valor de 3...
009D   00A0           00225     movwf pisoactual    ;a piso actual
009E   2???           00226     call retardo        ;llama al retardo
009F   30A4           00227     movlw b'10100100'   ;pone el numero 2
00A0   0088           00228     movwf PORTD         ;ubicado en el display ubicado en el puerto D
00A1   3002           00229     movlw b'00000010'   ;mueve el valor de 2...
00A2   00A0           00230     movwf pisoactual    ;...a pisoactual
00A3   1107           00231     bcf PORTC, 2        ;apaga el led ubicado en el pin 2 del puerto C
00A4   0185           00232     clrf PORTA          ;para el servo
00A5   2???           00233     goto _bajar1        ; va a la subrrutiana _bajar1
                      00234     
00A6                  00235 _subir1         ;subrrutina _subir1
00A6   1C20           00236     btfss pisoactual, 0 ;piso actual es 1?
00A7   2???           00237     goto _subir12        ;de no ser asi, va a _subir12
00A8   3001           00238     movlw b'00000001'   ;mueve el valor de 1...
00A9   0085           00239     movwf PORTA         ;al puerto A
00AA   30F9           00240     movlw b'11111001'   ;pone el numero 1
00AB   0088           00241     movwf PORTD         ;en el display 
00AC   3001           00242     movlw b'00000001'   ;mueve el valor de 1...
00AD   00A0           00243     movwf pisoactual    ;...a piso actual 
00AE   2???           00244     call retardo        ;llama al retardo
00AF   30A4           00245     movlw b'10100100'   ;pone el numero 2    
MPASM 5.75                          MAIN.ASM   11-23-2017  10:26:13         PAGE  6


LOC  OBJECT CODE     LINE SOURCE TEXT
  VALUE

00B0   0088           00246     movwf PORTD         ;en el display
00B1   3002           00247     movlw b'00000010'   ;mueve el valor de 2...
00B2   00A0           00248     movwf pisoactual    ;... a pisoactual 
00B3   0185           00249     clrf PORTA          ;para el servo
00B4   2???           00250     goto mismopiso      ;va a la subrrutina mismopiso
                      00251     
00B5                  00252 _subir12                ;subrrutina _subir12
00B5   3001           00253     movlw b'00000001'   ;mueve el valor de 1... 
00B6   0085           00254     movwf PORTA         ;...al puerto A
00B7   30A4           00255     movlw b'10100100'   ;pone el numero 2...
00B8   0088           00256     movwf PORTD         ;... en el display
00B9   3002           00257     movlw b'00000010'   ;mueve el valor de 2...
00BA   00A0           00258     movwf pisoactual    ;a piso actual  
00BB   2???           00259     call retardo        ;llama al retardo
00BC   30B0           00260     movlw b'10110000'   ;pone el numero 3...
00BD   0088           00261     movwf PORTD         ;... en el display 
00BE   3003           00262     movlw b'00000011'   ;pone el valor de 3...
00BF   00A0           00263     movwf pisoactual    ;a pisoactual
00C0   0185           00264     clrf PORTA          ;para el servo
00C1   2???           00265     goto mismopiso      ;va a la subrrutina mismopiso
                      00266     
00C2                  00267 _subir2             ;subrrutina _subir2
00C2   3001           00268     movlw b'00000001'   ;pone el valor de  1...
00C3   0085           00269     movwf PORTA         ;al puerto A
00C4   1407           00270     bsf PORTC, 0        ;enciende el led ubicado en el pin 0 del puerto C
00C5   30F9           00271     movlw b'11111001'   ;pone el numero 1...
00C6   0088           00272     movwf PORTD         ;... en el puerto D
00C7   3001           00273     movlw b'00000001'   ;pone el valor de 1...
00C8   00A0           00274     movwf pisoactual    ;a pisoactual
00C9   2???           00275     call retardo        ;llama a retardo
00CA   30A4           00276     movlw b'10100100'   ;pone el numero 2...
00CB   0088           00277     movwf PORTD         ;... en el display
00CC   3002           00278     movlw b'00000010'   ;pone el valor de 2....
00CD   00A0           00279     movwf pisoactual    ;... en pisoactual
00CE   1007           00280     bcf PORTC, 0        ;apaga el led ubicado en el pin 0 del puerto C
00CF   0185           00281     clrf PORTA  ;para el servo
00D0   2???           00282     goto _subir1      
                      00283    
                      00284 ;--------------RETARDO---------------------------------------------
00D1                  00285 retardo ;vamos a generar un retardo de 9 segundos
00D1   3014           00286     movlw d'20'         ;movemos el valor 20
00D2   00A3           00287     movwf CONTA_3       ;movemos el valor a CONTA_3
00D3   30FA           00288     movlw d'250'        ;movemos el valor 250
00D4   00A4           00289     movwf CONTA_2       ;movemos el valor a CONTA_2
00D5   30FA           00290     movlw d'250'                ;movemos el valor 250
00D6   00A5           00291     movwf CONTA_1       ;movemos el valor a CONTA_1
00D7   0000           00292     nop                 ;
00D8   0BA5           00293     decfsz CONTA_1, f   ;decrementa CONTA_1 en 1,(CONTA_1 - 1) si es 0 salta
00D9   2???           00294     goto $-.2           ;se devuleve 2 lineas
00DA   0BA4           00295     decfsz CONTA_2, F   ;decrementa CONTA_2 en 1,(CONTA_2 - 1) si es 0 salta
00DB   2???           00296     goto $-.6           ;Se devuelve 6 lineas
00DC   0BA3           00297     decfsz CONTA_3, F   ;decrementa CONTA_3 en 1,(CONTA_3 - 1) si es 0 salta
00DD   2???           00298     goto $-.10          ;Se devuelve 10 lineas
MPASM 5.75                          MAIN.ASM   11-23-2017  10:26:13         PAGE  7


LOC  OBJECT CODE     LINE SOURCE TEXT
  VALUE

00DE   0008           00299     return  
                      00300 ;---------------FIN DE PROGRAMA PRINCIPAL--------------------------     
20FD 3FFF             00301     end
MPASM 5.75                          MAIN.ASM   11-23-2017  10:26:13         PAGE  8


SYMBOL TABLE
  LABEL                             VALUE 

ABDEN                             00000000
ABDOVF                            00000007
ACKDT                             00000005
ACKEN                             00000004
ACKSTAT                           00000006
ADCON0                            0000001F
ADCON1                            0000009F
ADCS0                             00000006
ADCS1                             00000007
ADDEN                             00000003
ADFM                              00000007
ADIE                              00000006
ADIF                              00000006
ADON                              00000000
ADRESH                            0000001E
ADRESL                            0000009E
ANS0                              00000000
ANS1                              00000001
ANS10                             00000002
ANS11                             00000003
ANS12                             00000004
ANS13                             00000005
ANS2                              00000002
ANS3                              00000003
ANS4                              00000004
ANS5                              00000005
ANS6                              00000006
ANS7                              00000007
ANS8                              00000000
ANS9                              00000001
ANSEL                             00000188
ANSELH                            00000189
BAUDCTL                           00000187
BCLIE                             00000003
BCLIF                             00000003
BF                                00000000
BRG0                              00000000
BRG1                              00000001
BRG10                             00000002
BRG11                             00000003
BRG12                             00000004
BRG13                             00000005
BRG14                             00000006
BRG15                             00000007
BRG16                             00000003
BRG2                              00000002
BRG3                              00000003
BRG4                              00000004
BRG5                              00000005
BRG6                              00000006
BRG7                              00000007
BRG8                              00000000
BRG9                              00000001
MPASM 5.75                          MAIN.ASM   11-23-2017  10:26:13         PAGE  9


SYMBOL TABLE
  LABEL                             VALUE 

BRGH                              00000002
C                                 00000000
C1CH0                             00000000
C1CH1                             00000001
C1IE                              00000005
C1IF                              00000005
C1OE                              00000005
C1ON                              00000007
C1OUT                             00000006
C1POL                             00000004
C1R                               00000002
C1RSEL                            00000005
C1SEN                             00000005
C2CH0                             00000000
C2CH1                             00000001
C2IE                              00000006
C2IF                              00000006
C2OE                              00000005
C2ON                              00000007
C2OUT                             00000006
C2POL                             00000004
C2R                               00000002
C2REN                             00000004
C2RSEL                            00000004
C2SYNC                            00000000
CCP1CON                           00000017
CCP1IE                            00000002
CCP1IF                            00000002
CCP1M0                            00000000
CCP1M1                            00000001
CCP1M2                            00000002
CCP1M3                            00000003
CCP1X                             00000005
CCP1Y                             00000004
CCP2CON                           0000001D
CCP2IE                            00000000
CCP2IF                            00000000
CCP2M0                            00000000
CCP2M1                            00000001
CCP2M2                            00000002
CCP2M3                            00000003
CCP2X                             00000005
CCP2Y                             00000004
CCPR1                             00000015
CCPR1H                            00000016
CCPR1L                            00000015
CCPR2                             0000001B
CCPR2H                            0000001C
CCPR2L                            0000001B
CHS0                              00000002
CHS1                              00000003
CHS2                              00000004
CHS3                              00000005
MPASM 5.75                          MAIN.ASM   11-23-2017  10:26:13         PAGE 10


SYMBOL TABLE
  LABEL                             VALUE 

CKE                               00000006
CKP                               00000004
CM1CON0                           00000107
CM2CON0                           00000108
CM2CON1                           00000109
CONTA_1                           00000025
CONTA_2                           00000024
CONTA_3                           00000023
CREN                              00000004
CSRC                              00000007
D                                 00000005
DATA_ADDRESS                      00000005
DC                                00000001
DC1B0                             00000004
DC1B1                             00000005
DC2B0                             00000004
DC2B1                             00000005
D_A                               00000005
D_NOT_A                           00000005
ECCPAS                            0000009C
ECCPAS0                           00000004
ECCPAS1                           00000005
ECCPAS2                           00000006
ECCPASE                           00000007
EEADR                             0000010D
EEADRH                            0000010F
EECON1                            0000018C
EECON2                            0000018D
EEDAT                             0000010C
EEDATA                            0000010C
EEDATH                            0000010E
EEIE                              00000004
EEIF                              00000004
EEPGD                             00000007
F                                 00000001
FERR                              00000002
FSR                               00000004
FVREN                             00000000
GCEN                              00000007
GIE                               00000007
GO                                00000001
GO_DONE                           00000001
GO_NOT_DONE                       00000001
HTS                               00000002
I2C_DATA                          00000005
I2C_READ                          00000002
I2C_START                         00000003
I2C_STOP                          00000004
INDF                              00000000
INTCON                            0000000B
INTE                              00000004
INTEDG                            00000006
INTF                              00000001
MPASM 5.75                          MAIN.ASM   11-23-2017  10:26:13         PAGE 11


SYMBOL TABLE
  LABEL                             VALUE 

IOCB                              00000096
IOCB0                             00000000
IOCB1                             00000001
IOCB2                             00000002
IOCB3                             00000003
IOCB4                             00000004
IOCB5                             00000005
IOCB6                             00000006
IOCB7                             00000007
IRCF0                             00000004
IRCF1                             00000005
IRCF2                             00000006
IRP                               00000007
LTS                               00000001
MC1OUT                            00000007
MC2OUT                            00000006
MSK                               00000093
MSK0                              00000000
MSK1                              00000001
MSK2                              00000002
MSK3                              00000003
MSK4                              00000004
MSK5                              00000005
MSK6                              00000006
MSK7                              00000007
NOT_A                             00000005
NOT_ADDRESS                       00000005
NOT_BO                            00000000
NOT_BOR                           00000000
NOT_DONE                          00000001
NOT_PD                            00000003
NOT_POR                           00000001
NOT_RBPU                          00000007
NOT_RC8                           00000006
NOT_T1SYNC                        00000002
NOT_TO                            00000004
NOT_TX8                           00000006
NOT_W                             00000002
NOT_WRITE                         00000002
OERR                              00000001
OPTION_REG                        00000081
OSCCON                            0000008F
OSCTUNE                           00000090
OSFIE                             00000007
OSFIF                             00000007
OSTS                              00000003
P                                 00000004
P1M0                              00000006
P1M1                              00000007
PCL                               00000002
PCLATH                            0000000A
PCON                              0000008E
PDC0                              00000000
MPASM 5.75                          MAIN.ASM   11-23-2017  10:26:13         PAGE 12


SYMBOL TABLE
  LABEL                             VALUE 

PDC1                              00000001
PDC2                              00000002
PDC3                              00000003
PDC4                              00000004
PDC5                              00000005
PDC6                              00000006
PEIE                              00000006
PEN                               00000002
PIE1                              0000008C
PIE2                              0000008D
PIR1                              0000000C
PIR2                              0000000D
PISO1                             00000033
PISO2                             0000004A
PISO3                             0000005A
PORTA                             00000005
PORTB                             00000006
PORTC                             00000007
PORTD                             00000008
PORTE                             00000009
PR2                               00000092
PRSEN                             00000007
PS0                               00000000
PS1                               00000001
PS2                               00000002
PSA                               00000003
PSSAC0                            00000002
PSSAC1                            00000003
PSSBD0                            00000000
PSSBD1                            00000001
PSTRCON                           0000009D
PULSR                             00000002
PULSS                             00000003
PWM1CON                           0000009B
R                                 00000002
RA0                               00000000
RA1                               00000001
RA2                               00000002
RA3                               00000003
RA4                               00000004
RA5                               00000005
RA6                               00000006
RA7                               00000007
RB0                               00000000
RB1                               00000001
RB2                               00000002
RB3                               00000003
RB4                               00000004
RB5                               00000005
RB6                               00000006
RB7                               00000007
RBIE                              00000003
RBIF                              00000000
MPASM 5.75                          MAIN.ASM   11-23-2017  10:26:13         PAGE 13


SYMBOL TABLE
  LABEL                             VALUE 

RC0                               00000000
RC1                               00000001
RC2                               00000002
RC3                               00000003
RC4                               00000004
RC5                               00000005
RC6                               00000006
RC7                               00000007
RC8_9                             00000006
RC9                               00000006
RCD8                              00000000
RCEN                              00000003
RCIDL                             00000006
RCIE                              00000005
RCIF                              00000005
RCREG                             0000001A
RCSTA                             00000018
RD                                00000000
RD0                               00000000
RD1                               00000001
RD2                               00000002
RD3                               00000003
RD4                               00000004
RD5                               00000005
RD6                               00000006
RD7                               00000007
RE0                               00000000
RE1                               00000001
RE2                               00000002
RE3                               00000003
READ_WRITE                        00000002
RP0                               00000005
RP1                               00000006
RSEN                              00000001
RX9                               00000006
RX9D                              00000000
R_NOT_W                           00000002
R_W                               00000002
S                                 00000003
SBOREN                            00000004
SCKP                              00000004
SCS                               00000000
SEN                               00000000
SENDB                             00000003
SMP                               00000007
SPBRG                             00000099
SPBRGH                            0000009A
SPEN                              00000007
SR0                               00000006
SR1                               00000007
SRCON                             00000185
SREN                              00000005
SSPADD                            00000093
MPASM 5.75                          MAIN.ASM   11-23-2017  10:26:13         PAGE 14


SYMBOL TABLE
  LABEL                             VALUE 

SSPBUF                            00000013
SSPCON                            00000014
SSPCON2                           00000091
SSPEN                             00000005
SSPIE                             00000003
SSPIF                             00000003
SSPM0                             00000000
SSPM1                             00000001
SSPM2                             00000002
SSPM3                             00000003
SSPMSK                            00000093
SSPOV                             00000006
SSPSTAT                           00000094
STATUS                            00000003
STRA                              00000000
STRB                              00000001
STRC                              00000002
STRD                              00000003
STRSYNC                           00000004
SWDTEN                            00000000
SYNC                              00000004
T0CS                              00000005
T0IE                              00000005
T0IF                              00000002
T0SE                              00000004
T1CKPS0                           00000004
T1CKPS1                           00000005
T1CON                             00000010
T1GINV                            00000007
T1GIV                             00000007
T1GSS                             00000001
T1INSYNC                          00000002
T1OSCEN                           00000003
T1SYNC                            00000002
T2CKPS0                           00000000
T2CKPS1                           00000001
T2CON                             00000012
TMR0                              00000001
TMR0IE                            00000005
TMR0IF                            00000002
TMR1                              0000000E
TMR1CS                            00000001
TMR1GE                            00000006
TMR1H                             0000000F
TMR1IE                            00000000
TMR1IF                            00000000
TMR1L                             0000000E
TMR1ON                            00000000
TMR2                              00000011
TMR2IE                            00000001
TMR2IF                            00000001
TMR2ON                            00000002
TOUTPS0                           00000003
MPASM 5.75                          MAIN.ASM   11-23-2017  10:26:13         PAGE 15


SYMBOL TABLE
  LABEL                             VALUE 

TOUTPS1                           00000004
TOUTPS2                           00000005
TOUTPS3                           00000006
TRISA                             00000085
TRISA0                            00000000
TRISA1                            00000001
TRISA2                            00000002
TRISA3                            00000003
TRISA4                            00000004
TRISA5                            00000005
TRISA6                            00000006
TRISA7                            00000007
TRISB                             00000086
TRISB0                            00000000
TRISB1                            00000001
TRISB2                            00000002
TRISB3                            00000003
TRISB4                            00000004
TRISB5                            00000005
TRISB6                            00000006
TRISB7                            00000007
TRISC                             00000087
TRISC0                            00000000
TRISC1                            00000001
TRISC2                            00000002
TRISC3                            00000003
TRISC4                            00000004
TRISC5                            00000005
TRISC6                            00000006
TRISC7                            00000007
TRISD                             00000088
TRISD0                            00000000
TRISD1                            00000001
TRISD2                            00000002
TRISD3                            00000003
TRISD4                            00000004
TRISD5                            00000005
TRISD6                            00000006
TRISD7                            00000007
TRISE                             00000089
TRISE0                            00000000
TRISE1                            00000001
TRISE2                            00000002
TRISE3                            00000003
TRMT                              00000001
TUN0                              00000000
TUN1                              00000001
TUN2                              00000002
TUN3                              00000003
TUN4                              00000004
TX8_9                             00000006
TX9                               00000006
TX9D                              00000000
MPASM 5.75                          MAIN.ASM   11-23-2017  10:26:13         PAGE 16


SYMBOL TABLE
  LABEL                             VALUE 

TXD8                              00000000
TXEN                              00000005
TXIE                              00000004
TXIF                              00000004
TXREG                             00000019
TXSTA                             00000098
UA                                00000001
ULPWUE                            00000005
ULPWUIE                           00000002
ULPWUIF                           00000002
VCFG0                             00000004
VCFG1                             00000005
VR0                               00000000
VR1                               00000001
VR2                               00000002
VR3                               00000003
VRCON                             00000097
VREN                              00000007
VROE                              00000006
VRR                               00000005
VRSS                              00000004
W                                 00000000
WCOL                              00000007
WDTCON                            00000105
WDTPS0                            00000001
WDTPS1                            00000002
WDTPS2                            00000003
WDTPS3                            00000004
WPUB                              00000095
WPUB0                             00000000
WPUB1                             00000001
WPUB2                             00000002
WPUB3                             00000003
WPUB4                             00000004
WPUB5                             00000005
WPUB6                             00000006
WPUB7                             00000007
WR                                00000001
WREN                              00000002
WRERR                             00000003
WUE                               00000001
Z                                 00000002
_.org_1_00D9                      000000D9
_.org_1_00DB                      000000DB
_.org_1_00DD                      000000DD
_BOR21V                           00003EFF
_BOR40V                           00003FFF
_BOR4V_BOR21V                     00003EFF
_BOR4V_BOR40V                     00003FFF
_BOREN_NSLEEP                     00003EFF
_BOREN_OFF                        00003CFF
_BOREN_ON                         00003FFF
_BOREN_SBODEN                     00003DFF
MPASM 5.75                          MAIN.ASM   11-23-2017  10:26:13         PAGE 17


SYMBOL TABLE
  LABEL                             VALUE 

_BOR_NSLEEP                       00003EFF
_BOR_OFF                          00003CFF
_BOR_ON                           00003FFF
_BOR_SBODEN                       00003DFF
_CONFIG1                          00002007
_CONFIG2                          00002008
_CPD_OFF                          00003FFF
_CPD_ON                           00003F7F
_CP_OFF                           00003FFF
_CP_ON                            00003FBF
_DEBUG_OFF                        00003FFF
_DEBUG_ON                         00001FFF
_DEVID1                           00002006
_EC_OSC                           00003FFB
_EXTRC                            00003FFF
_EXTRCIO                          00003FFE
_EXTRC_OSC_CLKOUT                 00003FFF
_EXTRC_OSC_NOCLKOUT               00003FFE
_FCMEN_OFF                        000037FF
_FCMEN_ON                         00003FFF
_FOSC_EC                          00003FFB
_FOSC_EXTRC_CLKOUT                00003FFF
_FOSC_EXTRC_NOCLKOUT              00003FFE
_FOSC_HS                          00003FFA
_FOSC_INTRC_CLKOUT                00003FFD
_FOSC_INTRC_NOCLKOUT              00003FFC
_FOSC_LP                          00003FF8
_FOSC_XT                          00003FF9
_HS_OSC                           00003FFA
_IDLOC0                           00002000
_IDLOC1                           00002001
_IDLOC2                           00002002
_IDLOC3                           00002003
_IESO_OFF                         00003BFF
_IESO_ON                          00003FFF
_INTOSC                           00003FFD
_INTOSCIO                         00003FFC
_INTRC_OSC_CLKOUT                 00003FFD
_INTRC_OSC_NOCLKOUT               00003FFC
_LP_OSC                           00003FF8
_LVP_OFF                          00002FFF
_LVP_ON                           00003FFF
_MCLRE_OFF                        00003FDF
_MCLRE_ON                         00003FFF
_PWRTE_OFF                        00003FFF
_PWRTE_ON                         00003FEF
_WDTE_OFF                         00003FF7
_WDTE_ON                          00003FFF
_WDT_OFF                          00003FF7
_WDT_ON                           00003FFF
_WRT_1FOURTH                      00003BFF
_WRT_256                          00003DFF
_WRT_HALF                         000039FF
MPASM 5.75                          MAIN.ASM   11-23-2017  10:26:13         PAGE 18


SYMBOL TABLE
  LABEL                             VALUE 

_WRT_OFF                          00003FFF
_XT_OSC                           00003FF9
__16F887                          00000001
_bajar1                           00000077
_bajar12                          00000088
_bajar2                           00000097
_bucle                            00000025
_mayor                            00000043
_menor                            00000045
_pp1                              0000003A
_pp2                              00000051
_pp3                              00000061
_subir1                           000000A6
_subir12                          000000B5
_subir2                           000000C2
bajar                             00000071
bucle                             00000024
conf_int                          00000098
conf_timer                        000000C7
controlasen                       00000022
controlpiso                       00000022
inicio                            00000009
mismopiso                         0000006A
mover                             0000006E
pisoactual                        00000020
proximopiso                       00000021
retardo                           000000D1
rsi                               0000002C
subir                             00000074

Errors   :     0
Warnings :     3 reported,     0 suppressed
Messages :     6 reported,     0 suppressed

